; Function Attrs: null_pointer_is_valid sspstrong uwtable
define internal noundef zeroext i1 @sint40_from_sinteger64(ptr noundef writeonly captures(none) %0, ptr noundef %1, i64 noundef %2, ptr noundef writeonly captures(address_is_null) %3) #0 {
  %5 = icmp sgt i64 %2, 549755813887
  br i1 %5, label %6, label %9

6:                                                ; preds = %4
  %.not18.i = icmp eq ptr %3, null
  br i1 %.not18.i, label %_sint64_from_sinteger64.exit, label %7

7:                                                ; preds = %6
  %8 = tail call noalias ptr (ptr, ptr, ...) @wmem_strdup_printf(ptr noundef null, ptr noundef nonnull @.str.52, ptr noundef %1, i64 noundef 549755813887)
  store ptr %8, ptr %3, align 8
  br label %_sint64_from_sinteger64.exit

9:                                                ; preds = %4
  %10 = icmp slt i64 %2, -549755813888
  br i1 %10, label %11, label %14

11:                                               ; preds = %9
  %.not.i = icmp eq ptr %3, null
  br i1 %.not.i, label %_sint64_from_sinteger64.exit, label %12

12:                                               ; preds = %11
  %13 = tail call noalias ptr (ptr, ptr, ...) @wmem_strdup_printf(ptr noundef null, ptr noundef nonnull @.str.53, ptr noundef %1, i64 noundef -549755813888)
  store ptr %13, ptr %3, align 8
  br label %_sint64_from_sinteger64.exit

14:                                               ; preds = %9
  %15 = getelementptr inbounds nuw i8, ptr %0, i64 8
  store i64 %2, ptr %15, align 8
  br label %_sint64_from_sinteger64.exit

_sint64_from_sinteger64.exit:                     ; preds = %6, %7, %11, %12, %14
  %.0.i = phi i1 [ true, %14 ], [ false, %7 ], [ false, %6 ], [ false, %12 ], [ false, %11 ]
  ret i1 %.0.i
}